target datalayout = "e-m:e-p270:32:32-p271:32:32-p272:64:64-i64:64-i128:128-f80:128-n8:16:32:64-S128"
target triple = "x86_64-pc-linux-gnu"

%"struct.Imf_3_4::Slice" = type <{ i32, [4 x i8], ptr, i64, i64, i32, i32, double, i8, i8, [6 x i8] }>
%"class.Imath_3_2::Vec2" = type { i32, i32 }
%"class.Imath_3_2::Box" = type { %"class.Imath_3_2::Vec2", %"class.Imath_3_2::Vec2" }

; Function Attrs: mustprogress uwtable
define void @_ZN7Imf_3_45Slice4MakeENS_9PixelTypeEPKvRKN9Imath_3_23BoxINS4_4Vec2IiEEEEmmiidbb(ptr dead_on_unwind noalias writable sret(%"struct.Imf_3_4::Slice") align 8 %0, i32 noundef %1, ptr noundef %2, ptr noundef nonnull align 4 dereferenceable(16) %3, i64 noundef %4, i64 noundef %5, i32 noundef %6, i32 noundef %7, double noundef %8, i1 noundef zeroext %9, i1 noundef zeroext %10) #5 align 2 {
  %12 = alloca i32, align 4
  %13 = alloca ptr, align 8
  %14 = alloca ptr, align 8
  %15 = alloca i64, align 8
  %16 = alloca i64, align 8
  %17 = alloca i32, align 4
  %18 = alloca i32, align 4
  %19 = alloca double, align 8
  %20 = alloca i8, align 1
  %21 = alloca i8, align 1
  store i32 %1, ptr %12, align 4, !tbaa !8
  store ptr %2, ptr %13, align 8, !tbaa !32
  store ptr %3, ptr %14, align 8, !tbaa !44
  store i64 %4, ptr %15, align 8, !tbaa !12
  store i64 %5, ptr %16, align 8, !tbaa !12
  store i32 %6, ptr %17, align 4, !tbaa !14
  store i32 %7, ptr %18, align 4, !tbaa !14
  store double %8, ptr %19, align 8, !tbaa !16
  %22 = zext i1 %9 to i8
  store i8 %22, ptr %20, align 1, !tbaa !18
  %23 = zext i1 %10 to i8
  store i8 %23, ptr %21, align 1, !tbaa !18
  %24 = load i32, ptr %12, align 4, !tbaa !8
  %25 = load ptr, ptr %13, align 8, !tbaa !32
  %26 = load ptr, ptr %14, align 8, !tbaa !44
  %27 = getelementptr inbounds nuw %"class.Imath_3_2::Box", ptr %26, i32 0, i32 0
  %28 = load ptr, ptr %14, align 8, !tbaa !44
  %29 = getelementptr inbounds nuw %"class.Imath_3_2::Box", ptr %28, i32 0, i32 1
  %30 = getelementptr inbounds nuw %"class.Imath_3_2::Vec2", ptr %29, i32 0, i32 0
  %31 = load i32, ptr %30, align 4, !tbaa !46
  %32 = sext i32 %31 to i64
  %33 = load ptr, ptr %14, align 8, !tbaa !44
  %34 = getelementptr inbounds nuw %"class.Imath_3_2::Box", ptr %33, i32 0, i32 0
  %35 = getelementptr inbounds nuw %"class.Imath_3_2::Vec2", ptr %34, i32 0, i32 0
  %36 = load i32, ptr %35, align 4, !tbaa !48
  %37 = sext i32 %36 to i64
  %38 = sub nsw i64 %32, %37
  %39 = add nsw i64 %38, 1
  %40 = load ptr, ptr %14, align 8, !tbaa !44
  %41 = getelementptr inbounds nuw %"class.Imath_3_2::Box", ptr %40, i32 0, i32 1
  %42 = getelementptr inbounds nuw %"class.Imath_3_2::Vec2", ptr %41, i32 0, i32 1
  %43 = load i32, ptr %42, align 4, !tbaa !49
  %44 = sext i32 %43 to i64
  %45 = load ptr, ptr %14, align 8, !tbaa !44
  %46 = getelementptr inbounds nuw %"class.Imath_3_2::Box", ptr %45, i32 0, i32 0
  %47 = getelementptr inbounds nuw %"class.Imath_3_2::Vec2", ptr %46, i32 0, i32 1
  %48 = load i32, ptr %47, align 4, !tbaa !50
  %49 = sext i32 %48 to i64
  %50 = sub nsw i64 %44, %49
  %51 = add nsw i64 %50, 1
  %52 = load i64, ptr %15, align 8, !tbaa !12
  %53 = load i64, ptr %16, align 8, !tbaa !12
  %54 = load i32, ptr %17, align 4, !tbaa !14
  %55 = load i32, ptr %18, align 4, !tbaa !14
  %56 = load double, ptr %19, align 8, !tbaa !16
  %57 = load i8, ptr %20, align 1, !tbaa !18, !range !28, !noundef !29
  %58 = trunc i8 %57 to i1
  %59 = load i8, ptr %21, align 1, !tbaa !18, !range !28, !noundef !29
  %60 = trunc i8 %59 to i1
  call void @_ZN7Imf_3_45Slice4MakeENS_9PixelTypeEPKvRKN9Imath_3_24Vec2IiEEllmmiidbb(ptr dead_on_unwind writable sret(%"struct.Imf_3_4::Slice") align 8 %0, i32 noundef %24, ptr noundef %25, ptr noundef nonnull align 4 dereferenceable(8) %27, i64 noundef %39, i64 noundef %51, i64 noundef %52, i64 noundef %53, i32 noundef %54, i32 noundef %55, double noundef %56, i1 noundef zeroext %58, i1 noundef zeroext %60)
  ret void
}