; Function Attrs: mustprogress uwtable
define void @_ZN7Imf_3_45Slice4MakeENS_9PixelTypeEPKvRKN9Imath_3_23BoxINS4_4Vec2IiEEEEmmiidbb(ptr dead_on_unwind noalias writable sret(%"struct.Imf_3_4::Slice") align 8 %0, i32 noundef %1, ptr noundef %2, ptr noundef nonnull readonly align 4 captures(none) dereferenceable(16) %3, i64 noundef %4, i64 noundef %5, i32 noundef %6, i32 noundef %7, double noundef %8, i1 noundef zeroext %9, i1 noundef zeroext %10) local_unnamed_addr #4 align 2 {
  %12 = getelementptr inbounds nuw i8, ptr %3, i64 8
  %13 = load i32, ptr %12, align 4, !tbaa !25
  %14 = sext i32 %13 to i64
  %15 = load i32, ptr %3, align 4, !tbaa !27
  %16 = sext i32 %15 to i64
  %17 = add nsw i64 %14, 1
  %18 = sub nsw i64 %17, %16
  tail call void @_ZN7Imf_3_45Slice4MakeENS_9PixelTypeEPKvRKN9Imath_3_24Vec2IiEEllmmiidbb(ptr dead_on_unwind writable sret(%"struct.Imf_3_4::Slice") align 8 %0, i32 noundef %1, ptr noundef %2, ptr noundef nonnull align 4 dereferenceable(8) %3, i64 noundef %18, i64 poison, i64 noundef %4, i64 noundef %5, i32 noundef %6, i32 noundef %7, double noundef %8, i1 noundef zeroext %9, i1 noundef zeroext %10)
  ret void
}